; Function Attrs: mustprogress uwtable
define hidden noundef zeroext i1 @_ZN2pb6solver8set_rootEN3sat7literalES2_(ptr noundef nonnull align 8 dereferenceable(1049) %this, i32 %l.coerce, i32 %r.coerce) unnamed_addr #3 align 2 {
entry:
  %m_solver.i = getelementptr inbounds i8, ptr %this, i64 24
  %0 = load ptr, ptr %m_solver.i, align 8
  %shr.i = lshr i32 %l.coerce, 1
  %call4 = tail call noundef zeroext i1 @_ZNK3sat6solver13is_assumptionEj(ptr noundef nonnull align 8 dereferenceable(4408) %0, i32 noundef %shr.i)
  br i1 %call4, label %return, label %if.end

if.end:                                           ; preds = %entry
  tail call void @_ZN2pb6solver13reserve_rootsEv(ptr noundef nonnull align 8 dereferenceable(1049) %this)
  %m_roots = getelementptr inbounds i8, ptr %this, i64 960
  %1 = load ptr, ptr %m_roots, align 8
  %idxprom.i = zext i32 %l.coerce to i64
  %arrayidx.i = getelementptr inbounds %"class.sat::literal", ptr %1, i64 %idxprom.i
  store i32 %r.coerce, ptr %arrayidx.i, align 4
  %xor.i = xor i32 %r.coerce, 1
  %xor.i1 = xor i32 %l.coerce, 1
  %2 = load ptr, ptr %m_roots, align 8
  %idxprom.i2 = zext i32 %xor.i1 to i64
  %arrayidx.i3 = getelementptr inbounds %"class.sat::literal", ptr %2, i64 %idxprom.i2
  store i32 %xor.i, ptr %arrayidx.i3, align 4
  %3 = load ptr, ptr %m_roots, align 8
  %idxprom.i4 = zext i32 %r.coerce to i64
  %arrayidx.i5 = getelementptr inbounds %"class.sat::literal", ptr %3, i64 %idxprom.i4
  store i32 %r.coerce, ptr %arrayidx.i5, align 4
  %4 = load ptr, ptr %m_roots, align 8
  %idxprom.i8 = zext i32 %xor.i to i64
  %arrayidx.i9 = getelementptr inbounds %"class.sat::literal", ptr %4, i64 %idxprom.i8
  store i32 %xor.i, ptr %arrayidx.i9, align 4
  %m_root_vars = getelementptr inbounds i8, ptr %this, i64 968
  %5 = load ptr, ptr %m_root_vars, align 8
  %idxprom.i11 = zext nneg i32 %shr.i to i64
  %arrayidx.i12 = getelementptr inbounds i8, ptr %5, i64 %idxprom.i11
  store i8 1, ptr %arrayidx.i12, align 1
  br label %return

return:                                           ; preds = %entry, %if.end
  %retval.0 = xor i1 %call4, true
  ret i1 %retval.0
}